target datalayout = "e-m:e-p270:32:32-p271:32:32-p272:64:64-i64:64-i128:128-f80:128-n8:16:32:64-S128"
target triple = "x86_64-pc-linux-gnu"

; Function Attrs: mustprogress uwtable
define hidden noundef zeroext i1 @_ZN7specrel6solver10post_visitEP4exprbb(ptr noundef nonnull align 8 dereferenceable(128) %0, ptr noundef %1, i1 noundef zeroext %2, i1 noundef zeroext %3) unnamed_addr #4 align 2 {
  %5 = alloca ptr, align 8
  %6 = alloca ptr, align 8
  %7 = alloca i8, align 1
  %8 = alloca i8, align 1
  %9 = alloca ptr, align 8
  store ptr %0, ptr %5, align 8, !tbaa !3
  store ptr %1, ptr %6, align 8, !tbaa !424
  %10 = zext i1 %2 to i8
  store i8 %10, ptr %7, align 1, !tbaa !426
  %11 = zext i1 %3 to i8
  store i8 %11, ptr %8, align 1, !tbaa !426
  %12 = load ptr, ptr %5, align 8
  call void @llvm.lifetime.start.p0(i64 8, ptr %9) #3
  %13 = load ptr, ptr %6, align 8, !tbaa !424
  %14 = call noundef ptr @_ZNK3euf13th_euf_solver10expr2enodeEP4expr(ptr noundef nonnull align 8 dereferenceable(108) %12, ptr noundef %13)
  store ptr %14, ptr %9, align 8, !tbaa !414
  %15 = load ptr, ptr %9, align 8, !tbaa !414
  %16 = icmp ne ptr %15, null
  br i1 %16, label %20, label %17

17:                                               ; preds = %4
  %18 = load ptr, ptr %6, align 8, !tbaa !424
  %19 = call noundef ptr @_ZN3euf13th_euf_solver8mk_enodeEP4exprb(ptr noundef nonnull align 8 dereferenceable(108) %12, ptr noundef %18, i1 noundef zeroext false)
  store ptr %19, ptr %9, align 8, !tbaa !414
  br label %20

20:                                               ; preds = %17, %4
  %21 = load ptr, ptr %9, align 8, !tbaa !414
  %22 = load ptr, ptr %12, align 8, !tbaa !12
  %23 = getelementptr inbounds ptr, ptr %22, i64 66
  %24 = load ptr, ptr %23, align 8
  %25 = call noundef i32 %24(ptr noundef nonnull align 8 dereferenceable(128) %12, ptr noundef %21)
  call void @llvm.lifetime.end.p0(i64 8, ptr %9) #3
  ret i1 true
}

; Function Attrs: uwtable
define hidden noundef zeroext i1 @_ZThn48_N7specrel6solver10post_visitEP4exprbb(ptr noundef %0, ptr noundef %1, i1 noundef zeroext %2, i1 noundef zeroext %3) unnamed_addr #0 align 2 {
  %5 = alloca ptr, align 8
  %6 = alloca ptr, align 8
  %7 = alloca i8, align 1
  %8 = alloca i8, align 1
  store ptr %0, ptr %5, align 8, !tbaa !3
  store ptr %1, ptr %6, align 8, !tbaa !424
  %9 = zext i1 %2 to i8
  store i8 %9, ptr %7, align 1, !tbaa !426
  %10 = zext i1 %3 to i8
  store i8 %10, ptr %8, align 1, !tbaa !426
  %11 = load ptr, ptr %5, align 8
  %12 = getelementptr inbounds i8, ptr %11, i64 -48
  %13 = load ptr, ptr %6, align 8, !tbaa !424
  %14 = load i8, ptr %7, align 1, !tbaa !426, !range !427, !noundef !428
  %15 = trunc i8 %14 to i1
  %16 = load i8, ptr %8, align 1, !tbaa !426, !range !427, !noundef !428
  %17 = trunc i8 %16 to i1
  %18 = tail call noundef zeroext i1 @_ZN7specrel6solver10post_visitEP4exprbb(ptr noundef nonnull align 8 dereferenceable(128) %12, ptr noundef %13, i1 noundef zeroext %15, i1 noundef zeroext %17)
  ret i1 %18
}