; Function Attrs: uwtable
define hidden noundef zeroext i1 @_ZThn48_N7specrel6solver10post_visitEP4exprbb(ptr noundef %0, ptr noundef %1, i1 zeroext %2, i1 zeroext %3) unnamed_addr #7 align 2 {
  %5 = getelementptr inbounds i8, ptr %0, i64 -48
  %6 = tail call noundef ptr @_ZNK3euf13th_euf_solver10expr2enodeEP4expr(ptr noundef nonnull align 8 dereferenceable(128) %5, ptr noundef %1)
  %.not.i = icmp eq ptr %6, null
  br i1 %.not.i, label %7, label %_ZN7specrel6solver10post_visitEP4exprbb.exit

7:                                                ; preds = %4
  %8 = tail call noundef ptr @_ZN3euf13th_euf_solver8mk_enodeEP4exprb(ptr noundef nonnull align 8 dereferenceable(128) %5, ptr noundef %1, i1 noundef zeroext false)
  br label %_ZN7specrel6solver10post_visitEP4exprbb.exit

_ZN7specrel6solver10post_visitEP4exprbb.exit:     ; preds = %4, %7
  %.0.i = phi ptr [ %6, %4 ], [ %8, %7 ]
  %9 = load ptr, ptr %5, align 8, !tbaa !388
  %10 = getelementptr inbounds nuw i8, ptr %9, i64 528
  %11 = load ptr, ptr %10, align 8
  %12 = tail call noundef i32 %11(ptr noundef nonnull align 8 dereferenceable(128) %5, ptr noundef %.0.i)
  ret i1 true
}